target datalayout = "e-m:e-p270:32:32-p271:32:32-p272:64:64-i64:64-i128:128-f80:128-n8:16:32:64-S128"
target triple = "x86_64-pc-linux-gnu"

%struct.Tim_Man_t_ = type { ptr, ptr, ptr, i32, i32, i32, i32, ptr, ptr }
%struct.Tim_Box_t_ = type { i32, i32, i32, i32, i32, i32, i32, [0 x i32] }
%struct.Vec_Ptr_t_ = type { i32, i32, ptr }

; Function Attrs: inlinehint nounwind uwtable
define internal ptr @Vec_PtrEntry(ptr noundef %0, i32 noundef %1) #2 {
  %3 = alloca ptr, align 8
  %4 = alloca i32, align 4
  store ptr %0, ptr %3, align 8, !tbaa !33
  store i32 %1, ptr %4, align 4, !tbaa !8
  %5 = load ptr, ptr %3, align 8, !tbaa !33
  %6 = getelementptr inbounds nuw %struct.Vec_Ptr_t_, ptr %5, i32 0, i32 2
  %7 = load ptr, ptr %6, align 8, !tbaa !37
  %8 = load i32, ptr %4, align 4, !tbaa !8
  %9 = sext i32 %8 to i64
  %10 = getelementptr inbounds ptr, ptr %7, i64 %9
  %11 = load ptr, ptr %10, align 8, !tbaa !38
  ret ptr %11
}

; Function Attrs: nounwind uwtable
define i32 @Tim_ManBoxInputNum(ptr noundef %0, i32 noundef %1) #0 {
  %3 = alloca ptr, align 8
  %4 = alloca i32, align 4
  store ptr %0, ptr %3, align 8, !tbaa !3
  store i32 %1, ptr %4, align 4, !tbaa !8
  %5 = load ptr, ptr %3, align 8, !tbaa !3
  %6 = load i32, ptr %4, align 4, !tbaa !8
  %7 = call ptr @Tim_ManBox(ptr noundef %5, i32 noundef %6)
  %8 = getelementptr inbounds nuw %struct.Tim_Box_t_, ptr %7, i32 0, i32 2
  %9 = load i32, ptr %8, align 4, !tbaa !21
  ret i32 %9
}

; Function Attrs: inlinehint nounwind uwtable
define internal ptr @Tim_ManBox(ptr noundef %0, i32 noundef %1) #2 {
  %3 = alloca ptr, align 8
  %4 = alloca i32, align 4
  store ptr %0, ptr %3, align 8, !tbaa !3
  store i32 %1, ptr %4, align 4, !tbaa !8
  %5 = load ptr, ptr %3, align 8, !tbaa !3
  %6 = getelementptr inbounds nuw %struct.Tim_Man_t_, ptr %5, i32 0, i32 0
  %7 = load ptr, ptr %6, align 8, !tbaa !10
  %8 = load i32, ptr %4, align 4, !tbaa !8
  %9 = call ptr @Vec_PtrEntry(ptr noundef %7, i32 noundef %8)
  ret ptr %9
}

; Function Attrs: nounwind uwtable
define i32 @Tim_ManBoxInputLast(ptr noundef %0, i32 noundef %1) #0 {
  %3 = alloca ptr, align 8
  %4 = alloca i32, align 4
  store ptr %0, ptr %3, align 8, !tbaa !3
  store i32 %1, ptr %4, align 4, !tbaa !8
  %5 = load ptr, ptr %3, align 8, !tbaa !3
  %6 = load i32, ptr %4, align 4, !tbaa !8
  %7 = call ptr @Tim_ManBox(ptr noundef %5, i32 noundef %6)
  %8 = getelementptr inbounds nuw %struct.Tim_Box_t_, ptr %7, i32 0, i32 7
  %9 = getelementptr inbounds [0 x i32], ptr %8, i64 0, i64 0
  %10 = load i32, ptr %9, align 4, !tbaa !8
  %11 = load ptr, ptr %3, align 8, !tbaa !3
  %12 = load i32, ptr %4, align 4, !tbaa !8
  %13 = call i32 @Tim_ManBoxInputNum(ptr noundef %11, i32 noundef %12)
  %14 = add nsw i32 %10, %13
  %15 = sub nsw i32 %14, 1
  ret i32 %15
}