; Function Attrs: mustprogress nofree norecurse nosync nounwind willreturn memory(read, inaccessiblemem: none) uwtable
define range(i32 -2147483648, 2147483647) i32 @Tim_ManBoxInputLast(ptr noundef readonly captures(none) %0, i32 noundef %1) local_unnamed_addr #3 {
  %.val = load ptr, ptr %0, align 8, !tbaa !3
  %3 = getelementptr i8, ptr %.val, i64 8
  %.val.val = load ptr, ptr %3, align 8, !tbaa !15
  %4 = sext i32 %1 to i64
  %5 = getelementptr inbounds ptr, ptr %.val.val, i64 %4
  %6 = load ptr, ptr %5, align 8, !tbaa !19
  %7 = getelementptr inbounds nuw i8, ptr %6, i64 28
  %8 = load i32, ptr %7, align 4, !tbaa !26
  %9 = getelementptr inbounds nuw i8, ptr %6, i64 8
  %10 = load i32, ptr %9, align 4, !tbaa !21
  %11 = add i32 %8, -1
  %12 = add i32 %11, %10
  ret i32 %12
}